target datalayout = "e-m:e-p270:32:32-p271:32:32-p272:64:64-i64:64-i128:128-f80:128-n8:16:32:64-S128"
target triple = "x86_64-pc-linux-gnu"

%struct.ue_dynamic_drb_mappings_t = type { [39 x %struct.dynamic_lcid_drb_mapping_t], [33 x i8] }
%struct.dynamic_lcid_drb_mapping_t = type { i8, i32, i32, i8 }

@mac_lte_ue_channels_hash = internal global ptr null, align 8

; Function Attrs: null_pointer_is_valid sspstrong uwtable
define hidden zeroext i8 @get_mac_lte_channel_mode(i16 noundef zeroext %0, i8 noundef zeroext %1) #0 {
  %3 = alloca i8, align 1
  %4 = alloca i16, align 2
  %5 = alloca i8, align 1
  %6 = alloca ptr, align 8
  %7 = alloca i32, align 4
  %8 = alloca i8, align 1
  %9 = alloca i32, align 4
  store i16 %0, ptr %4, align 2
  store i8 %1, ptr %5, align 1
  call void @llvm.lifetime.start.p0(i64 8, ptr %6) #16
  %10 = load ptr, ptr @mac_lte_ue_channels_hash, align 8
  %11 = load i16, ptr %4, align 2
  %12 = zext i16 %11 to i32
  %13 = zext i32 %12 to i64
  %14 = inttoptr i64 %13 to ptr
  %15 = call ptr @g_hash_table_lookup(ptr noundef %10, ptr noundef %14)
  store ptr %15, ptr %6, align 8
  %16 = load ptr, ptr %6, align 8
  %17 = icmp ne ptr %16, null
  br i1 %17, label %19, label %18

18:                                               ; preds = %2
  store i8 0, ptr %3, align 1
  store i32 1, ptr %7, align 4
  br label %59

19:                                               ; preds = %2
  %20 = load i8, ptr %5, align 1
  %21 = zext i8 %20 to i32
  %22 = icmp sgt i32 %21, 32
  br i1 %22, label %23, label %24

23:                                               ; preds = %19
  store i8 0, ptr %3, align 1
  store i32 1, ptr %7, align 4
  br label %59

24:                                               ; preds = %19
  call void @llvm.lifetime.start.p0(i64 1, ptr %8) #16
  %25 = load ptr, ptr %6, align 8
  %26 = getelementptr inbounds nuw %struct.ue_dynamic_drb_mappings_t, ptr %25, i32 0, i32 1
  %27 = load i8, ptr %5, align 1
  %28 = zext i8 %27 to i64
  %29 = getelementptr [33 x i8], ptr %26, i64 0, i64 %28
  %30 = load i8, ptr %29, align 1
  store i8 %30, ptr %8, align 1
  %31 = load i8, ptr %8, align 1
  %32 = zext i8 %31 to i32
  %33 = icmp slt i32 %32, 3
  br i1 %33, label %34, label %35

34:                                               ; preds = %24
  store i8 0, ptr %3, align 1
  store i32 1, ptr %7, align 4
  br label %58

35:                                               ; preds = %24
  %36 = load ptr, ptr %6, align 8
  %37 = getelementptr inbounds nuw %struct.ue_dynamic_drb_mappings_t, ptr %36, i32 0, i32 0
  %38 = load i8, ptr %8, align 1
  %39 = zext i8 %38 to i64
  %40 = getelementptr [39 x %struct.dynamic_lcid_drb_mapping_t], ptr %37, i64 0, i64 %39
  %41 = getelementptr inbounds nuw %struct.dynamic_lcid_drb_mapping_t, ptr %40, i32 0, i32 0
  %42 = load i8, ptr %41, align 4, !range !9, !noundef !10
  %43 = trunc i8 %42 to i1
  br i1 %43, label %45, label %44

44:                                               ; preds = %35
  store i8 0, ptr %3, align 1
  store i32 1, ptr %7, align 4
  br label %58

45:                                               ; preds = %35
  call void @llvm.lifetime.start.p0(i64 4, ptr %9) #16
  %46 = load ptr, ptr %6, align 8
  %47 = getelementptr inbounds nuw %struct.ue_dynamic_drb_mappings_t, ptr %46, i32 0, i32 0
  %48 = load i8, ptr %8, align 1
  %49 = zext i8 %48 to i64
  %50 = getelementptr [39 x %struct.dynamic_lcid_drb_mapping_t], ptr %47, i64 0, i64 %49
  %51 = getelementptr inbounds nuw %struct.dynamic_lcid_drb_mapping_t, ptr %50, i32 0, i32 2
  %52 = load i32, ptr %51, align 4
  store i32 %52, ptr %9, align 4
  %53 = load i32, ptr %9, align 4
  %54 = icmp uge i32 %53, 4
  br i1 %54, label %55, label %56

55:                                               ; preds = %45
  store i8 4, ptr %3, align 1
  store i32 1, ptr %7, align 4
  br label %57

56:                                               ; preds = %45
  store i8 2, ptr %3, align 1
  store i32 1, ptr %7, align 4
  br label %57

57:                                               ; preds = %56, %55
  call void @llvm.lifetime.end.p0(i64 4, ptr %9) #16
  br label %58

58:                                               ; preds = %57, %44, %34
  call void @llvm.lifetime.end.p0(i64 1, ptr %8) #16
  br label %59

59:                                               ; preds = %58, %23, %18
  call void @llvm.lifetime.end.p0(i64 8, ptr %6) #16
  %60 = load i8, ptr %3, align 1
  ret i8 %60
}