; Function Attrs: null_pointer_is_valid sspstrong uwtable
define hidden zeroext range(i8 0, 5) i8 @get_mac_lte_channel_mode(i16 noundef zeroext %0, i8 noundef zeroext %1) local_unnamed_addr #0 {
  %3 = load ptr, ptr @mac_lte_ue_channels_hash, align 8
  %4 = zext i16 %0 to i64
  %5 = inttoptr i64 %4 to ptr
  %6 = tail call ptr @g_hash_table_lookup(ptr noundef %3, ptr noundef %5)
  %.not = icmp eq ptr %6, null
  %7 = icmp ugt i8 %1, 32
  %or.cond = or i1 %7, %.not
  br i1 %or.cond, label %23, label %8

8:                                                ; preds = %2
  %9 = getelementptr inbounds nuw i8, ptr %6, i64 624
  %10 = zext nneg i8 %1 to i64
  %11 = getelementptr [33 x i8], ptr %9, i64 0, i64 %10
  %12 = load i8, ptr %11, align 1
  %13 = icmp ult i8 %12, 3
  br i1 %13, label %23, label %14

14:                                               ; preds = %8
  %15 = zext i8 %12 to i64
  %16 = getelementptr [39 x %struct.dynamic_lcid_drb_mapping_t], ptr %6, i64 0, i64 %15
  %17 = load i8, ptr %16, align 4, !range !9, !noundef !10
  %18 = trunc nuw i8 %17 to i1
  br i1 %18, label %19, label %23

19:                                               ; preds = %14
  %20 = getelementptr inbounds nuw i8, ptr %16, i64 8
  %21 = load i32, ptr %20, align 4
  %22 = icmp ugt i32 %21, 3
  %. = select i1 %22, i8 4, i8 2
  br label %23

23:                                               ; preds = %19, %8, %14, %2
  %.0 = phi i8 [ 0, %2 ], [ %., %19 ], [ 0, %8 ], [ 0, %14 ]
  ret i8 %.0
}